target datalayout = "e-m:e-p270:32:32-p271:32:32-p272:64:64-i64:64-i128:128-f80:128-n8:16:32:64-S128"
target triple = "x86_64-unknown-linux-gnu"

%"class.icu_75::CaseMapTransliterator" = type { %"class.icu_75::Transliterator.base", ptr }
%"class.icu_75::Transliterator.base" = type <{ %"class.icu_75::UObject", %"class.icu_75::UnicodeString", ptr, i32 }>
%"class.icu_75::UObject" = type { ptr }
%"class.icu_75::UnicodeString" = type { %"class.icu_75::Replaceable", %"union.icu_75::UnicodeString::StackBufferOrFields" }
%"class.icu_75::Replaceable" = type { %"class.icu_75::UObject" }
%"union.icu_75::UnicodeString::StackBufferOrFields" = type { %struct.anon.0, [32 x i8] }
%struct.anon.0 = type { i16, i32, i32, ptr }

; Function Attrs: mustprogress uwtable
define void @_ZN6icu_7521CaseMapTransliteratorC2ERKS0_(ptr noundef nonnull align 8 dereferenceable(96) %this, ptr noundef nonnull align 8 dereferenceable(96) %o) unnamed_addr #0 align 2 {
entry:
  %this.addr = alloca ptr, align 8
  %o.addr = alloca ptr, align 8
  store ptr %this, ptr %this.addr, align 8
  store ptr %o, ptr %o.addr, align 8
  %this1 = load ptr, ptr %this.addr, align 8
  %0 = load ptr, ptr %o.addr, align 8
  call void @_ZN6icu_7514TransliteratorC2ERKS0_(ptr noundef nonnull align 8 dereferenceable(84) %this1, ptr noundef nonnull align 8 dereferenceable(84) %0)
  store ptr getelementptr inbounds ({ [19 x ptr] }, ptr @_ZTVN6icu_7521CaseMapTransliteratorE, i32 0, i32 0, i32 2), ptr %this1, align 8
  %fMap = getelementptr inbounds %"class.icu_75::CaseMapTransliterator", ptr %this1, i32 0, i32 1
  %1 = load ptr, ptr %o.addr, align 8
  %fMap2 = getelementptr inbounds %"class.icu_75::CaseMapTransliterator", ptr %1, i32 0, i32 1
  %2 = load ptr, ptr %fMap2, align 8
  store ptr %2, ptr %fMap, align 8
  ret void
}