; Function Attrs: mustprogress uwtable
define void @_ZN6icu_7521CaseMapTransliteratorC2ERKS0_(ptr noundef nonnull align 8 dereferenceable(96) %this, ptr noundef nonnull align 8 dereferenceable(96) %o) unnamed_addr #0 align 2 {
entry:
  tail call void @_ZN6icu_7514TransliteratorC2ERKS0_(ptr noundef nonnull align 8 dereferenceable(84) %this, ptr noundef nonnull align 8 dereferenceable(84) %o)
  store ptr getelementptr inbounds ({ [19 x ptr] }, ptr @_ZTVN6icu_7521CaseMapTransliteratorE, i64 0, i32 0, i64 2), ptr %this, align 8
  %fMap = getelementptr inbounds i8, ptr %this, i64 88
  %fMap2 = getelementptr inbounds i8, ptr %o, i64 88
  %0 = load ptr, ptr %fMap2, align 8
  store ptr %0, ptr %fMap, align 8
  ret void
}